(dp0
S'thresh'
p1
F0.028832087056799828
sS'mat'
p2
(lp3
(lp4
F-4.749893087483459
aF-4.046893610480502
aF-3.6341501710658464
aF-3.556871114344274
aF-4.319692752240572
aF-5.017395749336378
aF-4.152638667577406
aF-3.353890615632002
aF-3.562007050543056
aF-5.121573132936983
aF-3.833718844630345
aF-2.5780974968165324
aF-3.173252763384931
aF-1.7675877694800424
aF-6.1627455158561775
aF-4.781848469188007
aF-5.773357924475546
aF-2.1407315833654583
aF-3.056165417158046
aF-3.3401427261817727
aF-3.6040727158285684
aF-3.9644582391638363
aF-4.771677875983629
aF-6.258055695660502
aF-3.457410320813636
aF-4.578993532154128
aF-1.651202715838195
aa(lp5
F-1.712196361440386
aF-3.815607093233218
aF-7.206080511532398
aF-5.167460964372817
aF-1.3954186752491007
aF-7.652367614160817
aF-7.652367614160817
aF-5.0778488056831295
aF-2.4890112330468974
aF-6.3819050685660486
aF-6.250569066504961
aF-3.0503273211816535
aF-6.787370176674212
aF-5.903167759351558
aF-2.1835166465708684
aF-7.940049686612598
aF-8.122371243406553
aF-1.8542223780563314
aF-4.986877027477403
aF-6.959220433600872
aF-2.554790389930753
aF-8.027061063602227
aF-7.534584578504434
aF-8.122371243406553
aF-3.891167498467255
aF-7.534584578504434
aF-3.8695994445899338
aa(lp6
F-1.9562329262442206
aF-6.958893242157483
aF-3.3753743037013733
aF-6.0905419725724474
aF-2.6312441605897643
aF-6.665906117476009
aF-5.12546107652886
aF-1.2536933328203088
aF-2.6545406687155997
aF-7.630987013519596
aF-2.0547223036166757
aF-3.601180972435067
aF-5.926238921281171
aF-5.825434222159205
aF-2.2663748564782735
aF-6.8577971252861145
aF-5.438402815739879
aF-3.5058707926307418
aF-5.957010579947925
aF-5.627257293575457
aF-3.7764165828395355
aF-7.04784072817398
aF-6.801707658635071
aF-8.100990642765332
aF-4.6331735737617805
aF-3.9868434532470514
aF-3.6528642063869268
aa(lp7
F-1.7682353233492272
aF-5.472249665047434
aF-6.899366020687579
aF-3.859816243633535
aF-1.3800741201101732
aF-6.135838043365835
aF-4.524460266113907
aF-4.615708937579052
aF-2.198885654895163
aF-6.206218840127634
aF-6.008393096797715
aF-3.95055066692134
aF-4.95942603861877
aF-4.887244643107191
aF-2.3622962474034197
aF-7.63507281566632
aF-7.512470493573988
aF-2.750625343918106
aF-4.370309586286649
aF-4.323261169054257
aF-3.3553919219821755
aF-6.25970752507862
aF-4.965432062678982
aF-8.467981938601424
aF-3.608945028656283
aF-5.2022225278343734
aF-2.1386176028810446
aa(lp8
F-3.3614084081850395
aF-4.450427907252482
aF-3.9997233913106762
aF-3.924952831063716
aF-3.3656651271207374
aF-5.042983205588927
aF-4.475496804221175
aF-4.663308766621565
aF-3.2878840777385783
aF-5.780103374372866
aF-4.223795304133617
aF-2.137411968283823
aF-3.646642898440798
aF-2.193378571023122
aF-4.926273812122447
aF-4.953998360137302
aF-6.567460422871127
aF-1.6620363126919588
aF-2.829023050231428
aF-3.1330830759790556
aF-5.057130214297667
aF-4.268106350458528
aF-4.79401275728541
aF-5.856330739760749
aF-3.3437575572546105
aF-4.718878617776376
aF-1.8372219750904464
aa(lp9
F-2.0132517955087987
aF-6.565754745972665
aF-6.3690444517266105
aF-6.705516688347823
aF-1.7678105742743258
aF-2.045384944285758
aF-6.610206508543499
aF-5.87260756541272
aF-2.2304551877067524
aF-6.81087720400565
aF-5.383760848365504
aF-2.8999659274301943
aF-5.258597705411498
aF-5.028420127439908
aF-2.306755854682777
aF-6.81087720400565
aF-7.216342312113814
aF-2.2333066296159627
aF-4.470140345047228
aF-3.93605785911697
aF-3.281254033754672
aF-7.216342312113814
aF-7.1362996044402776
aF-7.398663868907769
aF-5.370515621615484
aF-6.405412095897486
aF-2.3820465031339655
aa(lp10
F-1.9296287268482852
aF-5.458968610978388
aF-6.602032662217332
aF-5.430395238534333
aF-1.5658182306499477
aF-6.24308756974406
aF-3.6623898553143843
aF-2.678260764300103
aF-2.637762272235896
aF-6.952235091650447
aF-6.952235091650447
aF-2.9466629870022736
aF-5.108107636905076
aF-3.8294439399775504
aF-2.5581842640097636
aF-7.018926466149119
aF-7.678172095033383
aF-2.48299548740486
aF-4.142055395471857
aF-4.689128809630189
aF-2.801957477746534
aF-7.250728080206444
aF-5.02963602146358
aF-7.821272938674056
aF-5.210072563561764
aF-7.821272938674056
aF-2.08519704229714
aa(lp11
F-1.3048271337273118
aF-5.709602981861754
aF-6.722448448772439
aF-6.358947539763307
aF-1.8339549911862798
aF-6.52427152018869
aF-7.081082257196504
aF-6.491119312871789
aF-2.2867512107642165
aF-6.491119312871789
aF-5.503519553292852
aF-3.416013451776286
aF-4.027266072281622
aF-3.747478166666877
aF-2.405325698776912
aF-7.401989977276606
aF-7.87741367399168
aF-3.52405493418737
aF-5.349947409784884
aF-4.2250629076112505
aF-3.225525863436129
aF-6.535571075442624
aF-4.951450970992813
aF-8.710322796926784
aF-4.180954324354975
aF-6.778801385323571
aF-1.756925160065946
aa(lp12
F-2.310441545474744
aF-4.629992815501817
aF-2.694454410243285
aF-3.7059932660093677
aF-2.3953570409090124
aF-4.895284835440472
aF-3.657690787779863
aF-5.48419320545179
aF-6.097763987509624
aF-5.458269520441999
aF-3.8030455767774614
aF-2.625171977439702
aF-3.6361361492049142
aF-1.7920362997717816
aF-3.4182258729654103
aF-4.7991596596660155
aF-5.6088177729248905
aF-3.3482949551042975
aF-2.480412598714971
aF-3.0004657017618377
aF-5.07402536781672
aF-4.579688832333309
aF-6.564786988617222
aF-5.9425477774803275
aF-4.145477621315035
aF-4.441670383434724
aF-2.1659383547852986
aa(lp13
F-0.8148327148438643
aF-6.939179405398188
aF-5.426591318954005
aF-5.552885044278297
aF-1.7539446006018877
aF-7.0192221130717245
aF-7.0192221130717245
aF-4.273020146005138
aF-2.888063577726907
aF-6.17192425268452
aF-5.314474020833299
aF-5.632927751951834
aF-5.426591318954005
aF-5.2846210576836175
aF-1.7894512890587975
aF-6.731540040619944
aF-7.0192221130717245
aF-5.426591318954005
aF-5.478777072124576
aF-5.719939128941463
aF-2.6216912918618775
aF-6.070141558374578
aF-6.208291896855395
aF-7.2015436698656785
aF-5.004319092529459
aF-6.670915418803508
aF-4.088028360655304
aa(lp14
F-1.7159408496683695
aF-6.455312493592145
aF-7.288221616527249
aF-7.000539544075468
aF-1.6679415310505987
aF-6.682085812956934
aF-7.981368797087194
aF-3.7140050707334527
aF-1.8704929110987267
aF-6.905229364271143
aF-5.21714832451793
aF-3.3835589655053955
aF-5.0404447600281985
aF-4.427927313868363
aF-2.3209578605735666
aF-7.598376544831089
aF-7.393582132185076
aF-3.3596693091478924
aF-4.06270124894038
aF-6.125070806721569
aF-3.4324162910973315
aF-7.105900059733295
aF-5.054629395020155
aF-7.79904724029324
aF-3.3363370776739725
aF-7.644896560465981
aF-1.8311925588243918
aa(lp15
F-1.817528039697124
aF-4.511348657165434
aF-5.1086191544461865
aF-3.663414947580232
aF-1.659813793738531
aF-5.154985075004112
aF-5.592308236777177
aF-5.437033329737637
aF-1.9916577940116704
aF-6.890716712762504
aF-4.788695483330503
aF-2.0084977106240007
aF-4.222554113801279
aF-5.889660714260639
aF-2.6598204837954933
aF-5.62431096786335
aF-7.527774426671407
aF-6.075522097759718
aF-4.054115449034352
aF-4.186520080976284
aF-3.7015073882427734
aF-4.961427444943231
aF-6.101385608349638
aF-8.701894267847662
aF-3.1385013834767577
aF-5.616213757630731
aF-2.2690487511713506
aa(lp16
F-1.053314901891696
aF-3.454247339283686
aF-3.1818327389626937
aF-6.415236664393804
aF-1.9248205693647413
aF-6.851663998105936
aF-6.678821185266525
aF-6.517890818453887
aF-2.077467797805134
aF-7.084286293374689
aF-5.640172361365972
aF-5.072562925749804
aF-3.5214830973902584
aF-6.196983098373786
aF-2.3505972565856195
aF-3.767506253525117
aF-7.826223638104066
aF-5.044303588435401
aF-4.3810093710251365
aF-6.8707121930766295
aF-3.421335334286922
aF-7.686461695728908
aF-7.060755795964495
aF-8.519370818664012
aF-3.8502873069322674
aF-6.796604220922908
aF-2.7507373716881944
aa(lp17
F-2.1925559052203347
aF-4.466603753777017
aF-4.050276673469294
aF-2.7084020501544157
aF-2.102355530305505
aF-5.680598116563972
aF-2.971589142617463
aF-4.983860267873298
aF-2.476799411164478
aF-5.789428540948242
aF-4.173062809705621
aF-5.263213916218597
aF-5.980343061465028
aF-2.6790077355164787
aF-3.1762964396610167
aF-7.050245244250706
aF-6.869497251904182
aF-5.7272323330783355
aF-3.332769165239164
aF-3.0968268238335908
aF-5.044186248504895
aF-6.315521636845021
aF-6.111565517483072
aF-8.494808513494572
aF-4.052157257004256
aF-4.545104441098738
aF-1.332224986931733
aa(lp18
F-4.721643818850699
aF-4.035655796756344
aF-3.705924527520548
aF-3.687771829854491
aF-3.6767625443461216
aF-4.303718828816311
aF-4.4271754867145585
aF-4.103902469160075
aF-4.755947974034468
aF-5.8640006564816645
aF-4.49616835820151
aF-2.494744316134709
aF-3.3920502056588777
aF-1.62127113320921
aF-3.724412847455171
aF-4.062800793474523
aF-7.149824487237921
aF-2.1461743167272305
aF-2.772404032978937
aF-3.367307374197918
aF-3.129474781395427
aF-3.759965654459816
aF-3.3865744904029147
aF-5.87627074907348
aF-4.46458142245219
aF-4.69350897077918
aF-1.9676279356596613
aa(lp19
F-1.6762394344882436
aF-6.624999324866412
aF-5.860393180324322
aF-6.785341974941591
aF-1.660084836170228
aF-4.187494913972996
aF-7.148247468630959
aF-2.8183368350960922
aF-2.2196360100132946
aF-7.212785989768531
aF-4.642721531640224
aF-3.1162216708081174
aF-5.603348077334431
aF-5.501995583074143
aF-2.249475267680097
aF-2.704861188219275
aF-7.618251097876695
aF-2.565834269765485
aF-3.9780368157440402
aF-4.767544596372963
aF-3.445403474166651
aF-7.52294091807237
aF-6.742782360522796
aF-7.618251097876695
aF-4.890398269478306
aF-7.281778861255482
aF-2.9661973259897536
aa(lp20
F-3.94275793247448
aF-5.647506024712905
aF-5.82982758150686
aF-5.647506024712905
aF-5.04137022114259
aF-5.82982758150686
aF-5.82982758150686
aF-5.82982758150686
aF-4.0052782894558145
aF-5.82982758150686
aF-5.82982758150686
aF-5.359823952261125
aF-5.493355344885647
aF-5.82982758150686
aF-5.424362473398696
aF-5.82982758150686
aF-5.567463317039369
aF-5.647506024712905
aF-5.647506024712905
aF-5.82982758150686
aF-0.16930061552161618
aF-5.647506024712905
aF-4.20058704177658
aF-5.82982758150686
aF-5.7345174017025355
aF-5.82982758150686
aF-3.6326030041706407
aa(lp21
F-2.0064561330477058
aF-4.514938139991912
aF-4.364099818277636
aF-3.463188861302651
aF-2.116692199167365
aF-5.3738775753946015
aF-3.720257200922767
aF-5.091674968707446
aF-1.9309988235903293
aF-6.540312460401472
aF-4.3667576271511575
aF-3.760803295317117
aF-4.044741628114659
aF-3.634146659446291
aF-2.4729364906609974
aF-5.755049990933721
aF-6.2139158757690005
aF-3.287854823077889
aF-3.5237460999446393
aF-3.1921540222840266
aF-3.5572329965185645
aF-5.113898105492156
aF-5.8920158460068786
aF-8.791604259007967
aF-3.5872923682053175
aF-5.136626356569712
aF-1.8303082130978003
aa(lp22
F-2.440872699568917
aF-4.893747206691403
aF-2.8083158876599463
aF-6.0206632715223645
aF-2.3439387296764584
aF-6.450342637751123
aF-6.472648395265422
aF-2.032654359116296
aF-2.784333009982837
aF-6.944156915690577
aF-2.954280808407022
aF-3.966662229686367
aF-4.21151205958244
aF-4.97780312448945
aF-2.9702344104491147
aF-4.1844520397234755
aF-6.359051217541716
aF-5.841536605624929
aF-2.9233335345801756
aF-2.166350478642995
aF-3.9394290792280087
aF-6.583874030375646
aF-4.8176478631527555
aF-9.06041243049313
aF-4.697313805704767
aF-4.933278045448038
aF-1.7587924014691494
aa(lp23
F-1.9511145787751754
aF-6.483511170436409
aF-4.813670636408786
aF-7.814745754373273
aF-1.8799460454547519
aF-6.603655482278472
aF-6.376265640082812
aF-2.464412140545401
aF-2.449771576135832
aF-6.419562445836136
aF-5.090166251319852
aF-4.116092788432356
aF-4.893121452973003
aF-4.883552001956852
aF-2.3615636772643205
aF-7.362760630630215
aF-8.438900063446265
aF-2.656717254715022
aF-3.8074125691408014
aF-2.3405262006906074
aF-3.8697025379169925
aF-6.870284145532421
aF-5.289017110065017
aF-8.58200090708694
aF-3.6784369930521397
aF-3.4690867638702656
aF-2.1687941885386524
aa(lp24
F-3.1455186307737453
aF-3.4380870125153877
aF-3.146081218692944
aF-3.209982164096801
aF-2.5704357402666376
aF-4.2285056015387745
aF-3.3016397545883023
aF-4.376859163681707
aF-3.112329743931963
aF-5.4526133142737665
aF-3.9255749336067325
aF-2.5252687684666255
aF-2.9857594112868773
aF-2.3949943376304974
aF-5.026644225967894
aF-4.004697819047702
aF-6.551225602941876
aF-2.050474756071547
aF-2.1008277588994555
aF-2.8700025026899327
aF-6.534418484625495
aF-5.019291251662636
aF-5.0874995016891695
aF-4.965802566711649
aF-4.9283194734569085
aF-4.255443257270582
aF-3.376000628794408
aa(lp25
F-1.3274276129999427
aF-7.367249330116013
aF-6.587090772566437
aF-6.546268778046183
aF-1.3007194770368016
aF-7.462559509920338
aF-7.126087273299125
aF-6.820705623747943
aF-1.3000871659186746
aF-7.057094401812173
aF-6.268637041447903
aF-4.611853008416604
aF-7.367249330116013
aF-5.622009876522851
aF-2.3626930820961394
aF-7.280237953126383
aF-7.462559509920338
aF-4.219967158434821
aF-5.011554411808019
aF-6.992555880674602
aF-5.1111842527568605
aF-6.363947221252228
aF-7.462559509920338
aF-7.462559509920338
aF-3.9630262275373207
aF-7.280237953126383
aF-3.8707417686495327
aa(lp26
F-1.4960512220984912
aF-5.274124628999316
aF-5.521960792903897
aF-4.790494748041816
aF-1.7420416281090885
aF-6.461968051395369
aF-6.5898014229052535
aF-3.5517936662030243
aF-1.6407192118151892
aF-6.847630532207353
aF-5.324135049573978
aF-4.187782432923021
aF-5.569970012090258
aF-3.3160931194116583
aF-2.4678122164287
aF-6.908255154023788
aF-7.282948603465199
aF-4.27816649439129
aF-2.5982953069082693
aF-5.4911891342371435
aF-4.412985717200241
aF-6.685111602709578
aF-6.54534966033442
aF-7.282948603465199
aF-3.7380445011368684
aF-6.736404897097128
aF-2.558783994634427
aa(lp27
F-1.9557287978397782
aF-4.329884083335076
aF-4.23751076320406
aF-4.819432308653782
aF-2.5598646007434267
aF-4.819432308653782
aF-5.461286194826176
aF-4.4316667776450185
aF-2.033771504846648
aF-5.278964638032222
aF-5.278964638032222
aF-3.5742165457937967
aF-4.267363726353742
aF-4.396575457833748
aF-3.357152040555969
aF-5.124813958204963
aF-5.365976015021851
aF-5.055821086718012
aF-3.264061617489957
aF-2.7532359937239663
aF-3.957208798049902
aF-5.1989219303586856
aF-4.50577474979874
aF-3.5742165457937967
aF-3.4872051688041665
aF-3.6207365614286893
aF-1.3820552704141238
aa(lp28
F-1.838150050104357
aF-4.8512797754199175
aF-4.273848232633003
aF-3.842693638409527
aF-2.802092642097884
aF-5.997358601326951
aF-5.492802590574556
aF-5.110668339229086
aF-4.057418619258142
aF-5.379923242502702
aF-4.0264655217811285
aF-2.68165859182321
aF-3.974156777969991
aF-2.1737115398502316
aF-3.35979047526316
aF-5.936733979510516
aF-6.244218679258477
aF-3.5641108098128607
aF-3.132185950008325
aF-4.361197618752097
aF-4.3734426697121975
aF-4.765649042029415
aF-5.926977804565151
aF-6.848134726090479
aF-5.8888779583328805
aF-5.159029410922508
aF-1.1200959822927863
aa(lp29
F-1.5508226883751743
aF-5.048392949197777
aF-5.169470880751013
aF-5.1996239189217
aF-1.815233655575926
aF-6.565715572724072
aF-5.42788257090268
aF-4.537567325431786
aF-2.0400215882377766
aF-6.4523868874170685
aF-4.283333187047545
aF-3.7684342378939184
aF-3.901269009103993
aF-4.734735390342735
aF-2.790658422369083
aF-6.229243336102859
aF-6.52649485957079
aF-5.273731891075422
aF-5.550484892995013
aF-5.724148387045853
aF-3.337285535051059
aF-6.3506041931071255
aF-4.980570352859016
aF-7.299684747804272
aF-3.1024828001424636
aF-3.0035337716560924
aF-1.7313402440431749
aa(lp30
F-2.766445051930212
aF-2.671954772594599
aF-2.7956329918369014
aF-2.797405979074866
aF-3.6287192721058963
aF-3.590659033936614
aF-3.1646418888751255
aF-3.163003551420808
aF-4.536893076298475
aF-3.2231998324120514
aF-2.7477643887152166
aF-2.9054674701468426
aF-2.5298353550237844
aF-3.62611468004254
aF-4.205225062734042
aF-3.2350045382986856
aF-5.576260742893294
aF-3.082724766407239
aF-2.3013395042924167
aF-3.010784051969018
aF-5.483551344789026
aF-3.8291002332162027
aF-3.6723637737283887
aF-6.7300837635337585
aF-4.5752087827640455
aF-4.1631853590957615
aF-10.047899536256862
aas.